; Function Attrs: mustprogress uwtable
define void @_ZN8MdiChild14setCurrentFileERK7QString(ptr noundef nonnull align 8 dereferenceable(153) %0, ptr noundef nonnull align 8 dereferenceable(24) %1) local_unnamed_addr #0 align 2 personality ptr @__gxx_personality_v0 {
  %3 = alloca %class.QFileInfo, align 8
  %4 = alloca %class.QString, align 16
  %5 = alloca %class.QFileInfo, align 8
  %6 = alloca %class.QString, align 8
  %7 = alloca %class.QString, align 8
  call void @_ZN9QFileInfoC1ERK7QString(ptr noundef nonnull align 8 dereferenceable(8) %5, ptr noundef nonnull align 8 dereferenceable(24) %1)
  invoke void @_ZNK9QFileInfo17canonicalFilePathEv(ptr dead_on_unwind nonnull writable sret(%class.QString) align 8 %4, ptr noundef nonnull align 8 dereferenceable(8) %5)
          to label %8 unwind label %36

8:                                                ; preds = %2
  %9 = getelementptr inbounds i8, ptr %0, i64 128
  %10 = load ptr, ptr %9, align 8
  %11 = getelementptr inbounds i8, ptr %0, i64 136
  %12 = getelementptr inbounds i8, ptr %4, i64 8
  %13 = load ptr, ptr %11, align 8
  %14 = load <2 x ptr>, ptr %4, align 16
  store ptr %10, ptr %4, align 16
  store <2 x ptr> %14, ptr %9, align 8
  store ptr %13, ptr %12, align 8
  %15 = getelementptr inbounds i8, ptr %0, i64 144
  %16 = getelementptr inbounds i8, ptr %4, i64 16
  %17 = load i64, ptr %15, align 8
  %18 = load i64, ptr %16, align 16
  store i64 %18, ptr %15, align 8
  store i64 %17, ptr %16, align 16
  %.not.i.i.i = icmp eq ptr %10, null
  br i1 %.not.i.i.i, label %_ZN7QStringD2Ev.exit, label %_ZN17QArrayDataPointerIDsE5derefEv.exit.i.i

_ZN17QArrayDataPointerIDsE5derefEv.exit.i.i:      ; preds = %8
  %19 = atomicrmw sub ptr %10, i32 1 seq_cst, align 4
  %.not.i.i = icmp eq i32 %19, 1
  br i1 %.not.i.i, label %20, label %_ZN7QStringD2Ev.exit

20:                                               ; preds = %_ZN17QArrayDataPointerIDsE5derefEv.exit.i.i
  %21 = load ptr, ptr %4, align 16
  call void @_ZN10QArrayData10deallocateEPS_xx(ptr noundef %21, i64 noundef 2, i64 noundef 8) #10
  br label %_ZN7QStringD2Ev.exit

_ZN7QStringD2Ev.exit:                             ; preds = %8, %_ZN17QArrayDataPointerIDsE5derefEv.exit.i.i, %20
  call void @_ZN9QFileInfoD1Ev(ptr noundef nonnull align 8 dereferenceable(8) %5) #10
  %22 = getelementptr inbounds i8, ptr %0, i64 152
  store i8 0, ptr %22, align 8
  %23 = call noundef ptr @_ZNK9QTextEdit8documentEv(ptr noundef nonnull align 8 dereferenceable(40) %0)
  call void @_ZN13QTextDocument11setModifiedEb(ptr noundef nonnull align 8 dereferenceable(16) %23, i1 noundef zeroext false)
  call void @_ZN7QWidget17setWindowModifiedEb(ptr noundef nonnull align 8 dereferenceable(40) %0, i1 noundef zeroext false)
  call void @llvm.lifetime.start.p0(i64 8, ptr nonnull %3), !noalias !4
  call void @_ZN9QFileInfoC1ERK7QString(ptr noundef nonnull align 8 dereferenceable(8) %3, ptr noundef nonnull align 8 dereferenceable(24) %9), !noalias !7
  invoke void @_ZNK9QFileInfo8fileNameEv(ptr dead_on_unwind nonnull writable sret(%class.QString) align 8 %7, ptr noundef nonnull align 8 dereferenceable(8) %3)
          to label %_ZN8MdiChild23userFriendlyCurrentFileEv.exit unwind label %24

common.resume:                                    ; preds = %36, %_ZN7QStringD2Ev.exit18, %_ZN17QArrayDataPointerIDsE5derefEv.exit.i.i20, %48, %24
  %common.resume.op = phi { ptr, i32 } [ %25, %24 ], [ %37, %36 ], [ %.pn, %_ZN7QStringD2Ev.exit18 ], [ %.pn, %_ZN17QArrayDataPointerIDsE5derefEv.exit.i.i20 ], [ %.pn, %48 ]
  resume { ptr, i32 } %common.resume.op

24:                                               ; preds = %_ZN7QStringD2Ev.exit
  %25 = landingpad { ptr, i32 }
          cleanup
  call void @_ZN9QFileInfoD1Ev(ptr noundef nonnull align 8 dereferenceable(8) %3) #10
  br label %common.resume

_ZN8MdiChild23userFriendlyCurrentFileEv.exit:     ; preds = %_ZN7QStringD2Ev.exit
  call void @_ZN9QFileInfoD1Ev(ptr noundef nonnull align 8 dereferenceable(8) %3) #10
  call void @llvm.lifetime.end.p0(i64 8, ptr nonnull %3), !noalias !4
  invoke void @_ZplRK7QStringPKc(ptr dead_on_unwind nonnull writable sret(%class.QString) align 8 %6, ptr noundef nonnull align 8 dereferenceable(24) %7, ptr noundef nonnull @.str.1)
          to label %26 unwind label %38

26:                                               ; preds = %_ZN8MdiChild23userFriendlyCurrentFileEv.exit
  invoke void @_ZN7QWidget14setWindowTitleERK7QString(ptr noundef nonnull align 8 dereferenceable(40) %0, ptr noundef nonnull align 8 dereferenceable(24) %6)
          to label %27 unwind label %40

27:                                               ; preds = %26
  %28 = load ptr, ptr %6, align 8
  %.not.i.i.i7 = icmp eq ptr %28, null
  br i1 %.not.i.i.i7, label %_ZN7QStringD2Ev.exit10, label %_ZN17QArrayDataPointerIDsE5derefEv.exit.i.i8

_ZN17QArrayDataPointerIDsE5derefEv.exit.i.i8:     ; preds = %27
  %29 = atomicrmw sub ptr %28, i32 1 seq_cst, align 4
  %.not.i.i9 = icmp eq i32 %29, 1
  br i1 %.not.i.i9, label %30, label %_ZN7QStringD2Ev.exit10

30:                                               ; preds = %_ZN17QArrayDataPointerIDsE5derefEv.exit.i.i8
  %31 = load ptr, ptr %6, align 8
  call void @_ZN10QArrayData10deallocateEPS_xx(ptr noundef %31, i64 noundef 2, i64 noundef 8) #10
  br label %_ZN7QStringD2Ev.exit10

_ZN7QStringD2Ev.exit10:                           ; preds = %27, %_ZN17QArrayDataPointerIDsE5derefEv.exit.i.i8, %30
  %32 = load ptr, ptr %7, align 8
  %.not.i.i.i11 = icmp eq ptr %32, null
  br i1 %.not.i.i.i11, label %_ZN7QStringD2Ev.exit14, label %_ZN17QArrayDataPointerIDsE5derefEv.exit.i.i12

_ZN17QArrayDataPointerIDsE5derefEv.exit.i.i12:    ; preds = %_ZN7QStringD2Ev.exit10
  %33 = atomicrmw sub ptr %32, i32 1 seq_cst, align 4
  %.not.i.i13 = icmp eq i32 %33, 1
  br i1 %.not.i.i13, label %34, label %_ZN7QStringD2Ev.exit14

34:                                               ; preds = %_ZN17QArrayDataPointerIDsE5derefEv.exit.i.i12
  %35 = load ptr, ptr %7, align 8
  call void @_ZN10QArrayData10deallocateEPS_xx(ptr noundef %35, i64 noundef 2, i64 noundef 8) #10
  br label %_ZN7QStringD2Ev.exit14

_ZN7QStringD2Ev.exit14:                           ; preds = %_ZN7QStringD2Ev.exit10, %_ZN17QArrayDataPointerIDsE5derefEv.exit.i.i12, %34
  ret void

36:                                               ; preds = %2
  %37 = landingpad { ptr, i32 }
          cleanup
  call void @_ZN9QFileInfoD1Ev(ptr noundef nonnull align 8 dereferenceable(8) %5) #10
  br label %common.resume

38:                                               ; preds = %_ZN8MdiChild23userFriendlyCurrentFileEv.exit
  %39 = landingpad { ptr, i32 }
          cleanup
  br label %_ZN7QStringD2Ev.exit18

40:                                               ; preds = %26
  %41 = landingpad { ptr, i32 }
          cleanup
  %42 = load ptr, ptr %6, align 8
  %.not.i.i.i15 = icmp eq ptr %42, null
  br i1 %.not.i.i.i15, label %_ZN7QStringD2Ev.exit18, label %_ZN17QArrayDataPointerIDsE5derefEv.exit.i.i16

_ZN17QArrayDataPointerIDsE5derefEv.exit.i.i16:    ; preds = %40
  %43 = atomicrmw sub ptr %42, i32 1 seq_cst, align 4
  %.not.i.i17 = icmp eq i32 %43, 1
  br i1 %.not.i.i17, label %44, label %_ZN7QStringD2Ev.exit18

44:                                               ; preds = %_ZN17QArrayDataPointerIDsE5derefEv.exit.i.i16
  %45 = load ptr, ptr %6, align 8
  call void @_ZN10QArrayData10deallocateEPS_xx(ptr noundef %45, i64 noundef 2, i64 noundef 8) #10
  br label %_ZN7QStringD2Ev.exit18

_ZN7QStringD2Ev.exit18:                           ; preds = %44, %_ZN17QArrayDataPointerIDsE5derefEv.exit.i.i16, %40, %38
  %.pn = phi { ptr, i32 } [ %39, %38 ], [ %41, %40 ], [ %41, %_ZN17QArrayDataPointerIDsE5derefEv.exit.i.i16 ], [ %41, %44 ]
  %46 = load ptr, ptr %7, align 8
  %.not.i.i.i19 = icmp eq ptr %46, null
  br i1 %.not.i.i.i19, label %common.resume, label %_ZN17QArrayDataPointerIDsE5derefEv.exit.i.i20

_ZN17QArrayDataPointerIDsE5derefEv.exit.i.i20:    ; preds = %_ZN7QStringD2Ev.exit18
  %47 = atomicrmw sub ptr %46, i32 1 seq_cst, align 4
  %.not.i.i21 = icmp eq i32 %47, 1
  br i1 %.not.i.i21, label %48, label %common.resume

48:                                               ; preds = %_ZN17QArrayDataPointerIDsE5derefEv.exit.i.i20
  %49 = load ptr, ptr %7, align 8
  call void @_ZN10QArrayData10deallocateEPS_xx(ptr noundef %49, i64 noundef 2, i64 noundef 8) #10
  br label %common.resume
}